ccopy_reg
_reconstructor
p0
(cgoogle.oauth2.credentials
Credentials
p1
c__builtin__
object
p2
Ntp3
Rp4
(dp5
S'_token_uri'
p6
Vhttps://oauth2.googleapis.com/token
p7
sS'_scopes'
p8
(lp9
S'https://www.googleapis.com/auth/calendar'
p10
asS'_id_token'
p11
NsS'token'
p12
Vya29.GlwCB_DDBs43p0st6mHX-3Ncr59G-Bb38hbpXA3Xzs_c4FrX65KnlCvDmA8BH_NUgV0_Jb7C6j4hD9-seiR3kfcAU3LIKGXgKd7Xi_oPSBBBlNH5iUu1ynWc9HMNxg
p13
sS'_refresh_token'
p14
V1/Cpo22JnyD8_MbDuUnnvvc379X85uyxuyFZEmmO3Btck
p15
sS'_client_secret'
p16
Vhptk5umdwjLxB6UuDB5lG5Kk
p17
sS'_client_id'
p18
V957475716778-uugs448ojri2mca3htgg7gg2v2hg1p48.apps.googleusercontent.com
p19
sS'expiry'
p20
cdatetime
datetime
p21
(S'\x07\xe3\x05\x07\x12\x1a\x1f\x04S\xe9'
p22
tp23
Rp24
sb.