ccopy_reg
_reconstructor
p0
(cgoogle.oauth2.credentials
Credentials
p1
c__builtin__
object
p2
Ntp3
Rp4
(dp5
S'_token_uri'
p6
Vhttps://oauth2.googleapis.com/token
p7
sS'_client_secret'
p8
Vhptk5umdwjLxB6UuDB5lG5Kk
p9
sS'_id_token'
p10
NsS'token'
p11
Vya29.Glv4BsJzLr91nFFtUQokPaLCQS0whPdcPfzCxu34m1h5wC5ny7T11lIJq8W4S93lh6rLBoTEMMBG7VJfys1Y27QrIOYv8TsH_ZBhs68vgZjwX11fMdbiXVI7A7NH
p12
sS'_refresh_token'
p13
V1/Cpo22JnyD8_MbDuUnnvvc379X85uyxuyFZEmmO3Btck
p14
sS'_scopes'
p15
(lp16
S'https://www.googleapis.com/auth/calendar'
p17
asS'_client_id'
p18
V957475716778-uugs448ojri2mca3htgg7gg2v2hg1p48.apps.googleusercontent.com
p19
sS'expiry'
p20
cdatetime
datetime
p21
(S'\x07\xe3\x04\x1b\x15\x15,\x02\xc0\x8f'
p22
tp23
Rp24
sb.