ccopy_reg
_reconstructor
p0
(cgoogle.oauth2.credentials
Credentials
p1
c__builtin__
object
p2
Ntp3
Rp4
(dp5
S'_token_uri'
p6
Vhttps://oauth2.googleapis.com/token
p7
sS'_scopes'
p8
(lp9
S'https://www.googleapis.com/auth/calendar.readonly'
p10
asS'_id_token'
p11
NsS'token'
p12
Vya29.Glz4Bv05M-tiouygJdViYWvRpFRRr5SdidL16jctIGZfTOpMWA73BjhZugiv7nftC4kPAJp8_hfW3EKJJimgswHG5FWWd6C2kxoGGmuX5AlxVacUL2C153D2zaSA7w
p13
sS'_refresh_token'
p14
V1/TtOV5vlB-tf_-3FmyoUV1SR_RbHbXWO_B9EiWk_ErIg
p15
sS'_client_secret'
p16
VHwlBbrk0Llh7NpLoSWzTq5ay
p17
sS'_client_id'
p18
V957475716778-j86j1821c8g0v43sdpca5car4rdfhp51.apps.googleusercontent.com
p19
sS'expiry'
p20
cdatetime
datetime
p21
(S'\x07\xe3\x04\x1b\x08\r\x17\x00\xb3\xb3'
p22
tp23
Rp24
sb.