ccopy_reg
_reconstructor
p0
(cgoogle.oauth2.credentials
Credentials
p1
c__builtin__
object
p2
Ntp3
Rp4
(dp5
S'_token_uri'
p6
Vhttps://oauth2.googleapis.com/token
p7
sS'_client_secret'
p8
VHwlBbrk0Llh7NpLoSWzTq5ay
p9
sS'_id_token'
p10
NsS'token'
p11
Vya29.Glv3BkH8qMqzIvqBzvySP0uot58b6tQvaJhCBIcS1mCUPmQafMsNqTawQx6ZnT9Ic6YSqEUCtQ_qn8M4V1xw9SlXRvVGKAnxp0oi7FeA06iTeAaJUFW5iLDeKwkj
p12
sS'_refresh_token'
p13
V1/TtOV5vlB-tf_-3FmyoUV1SR_RbHbXWO_B9EiWk_ErIg
p14
sS'_scopes'
p15
(lp16
S'https://www.googleapis.com/auth/calendar.readonly'
p17
asS'_client_id'
p18
V957475716778-j86j1821c8g0v43sdpca5car4rdfhp51.apps.googleusercontent.com
p19
sS'expiry'
p20
cdatetime
datetime
p21
(S'\x07\xe3\x04\x1a\x1688\r6\x9e'
p22
tp23
Rp24
sb.