ccopy_reg
_reconstructor
p0
(cgoogle.oauth2.credentials
Credentials
p1
c__builtin__
object
p2
Ntp3
Rp4
(dp5
S'_token_uri'
p6
Vhttps://oauth2.googleapis.com/token
p7
sS'_scopes'
p8
(lp9
S'https://www.googleapis.com/auth/calendar'
p10
asS'_id_token'
p11
NsS'token'
p12
Vya29.Gl0WB16HPZtyoOMxVUsQ5ithZjnhNu1J2TQT6GWYbKMCz_v34Vak5aQV8PobwghexeibrWNnIW240rYZCi70sgmucsNgcU1tBhLjLjqe-S-Npp-7IgMIxJSG_2oA2Js
p13
sS'_refresh_token'
p14
V1/Cpo22JnyD8_MbDuUnnvvc379X85uyxuyFZEmmO3Btck
p15
sS'_client_secret'
p16
Vhptk5umdwjLxB6UuDB5lG5Kk
p17
sS'_client_id'
p18
V957475716778-uugs448ojri2mca3htgg7gg2v2hg1p48.apps.googleusercontent.com
p19
sS'expiry'
p20
cdatetime
datetime
p21
(S'\x07\xe3\x05\x1b\x14,#\x03*4'
p22
tp23
Rp24
sb.